; Function Attrs: nofree norecurse nosync nounwind memory(argmem: readwrite) uwtable
define internal void @eotf_gamma22(double noundef %0, double noundef %1, ptr noundef captures(none) %2) #5 {
  br label %4

4:                                                ; preds = %4, %3
  %indvars.iv.i = phi i64 [ 0, %3 ], [ %indvars.iv.next.i, %4 ]
  %5 = getelementptr inbounds nuw double, ptr %2, i64 %indvars.iv.i
  %6 = load double, ptr %5, align 8, !tbaa !16
  %7 = fcmp nsz olt double %6, 0.000000e+00
  %8 = tail call nsz double @llvm.pow.f64(double %6, double 2.200000e+00)
  %9 = select nsz i1 %7, double 0.000000e+00, double %8
  store double %9, ptr %5, align 8, !tbaa !16
  %indvars.iv.next.i = add nuw nsw i64 %indvars.iv.i, 1
  %exitcond.not.i = icmp eq i64 %indvars.iv.next.i, 3
  br i1 %exitcond.not.i, label %oetf_gamma22_inv.exit, label %4, !llvm.loop !21

oetf_gamma22_inv.exit:                            ; preds = %4
  %10 = fsub nsz double %0, %1
  br label %11

11:                                               ; preds = %11, %oetf_gamma22_inv.exit
  %indvars.iv.i4 = phi i64 [ 0, %oetf_gamma22_inv.exit ], [ %indvars.iv.next.i5, %11 ]
  %12 = getelementptr inbounds nuw double, ptr %2, i64 %indvars.iv.i4
  %13 = load double, ptr %12, align 8, !tbaa !16
  %14 = tail call nsz double @llvm.fmuladd.f64(double %10, double %13, double %1)
  store double %14, ptr %12, align 8, !tbaa !16
  %indvars.iv.next.i5 = add nuw nsw i64 %indvars.iv.i4, 1
  %exitcond.not.i6 = icmp eq i64 %indvars.iv.next.i5, 3
  br i1 %exitcond.not.i6, label %eotf_linear.exit, label %11, !llvm.loop !22

eotf_linear.exit:                                 ; preds = %11
  ret void
}